; Function Attrs: nounwind uwtable
define hidden void @setInetAddress_addr(ptr noundef %0, ptr noundef %1, i32 noundef %2) local_unnamed_addr #1 {
  %4 = load ptr, ptr %0, align 8
  %5 = getelementptr inbounds i8, ptr %4, i64 760
  %6 = load ptr, ptr %5, align 8
  %7 = load ptr, ptr @ia_holderID, align 8
  %8 = tail call ptr %6(ptr noundef nonnull %0, ptr noundef %1, ptr noundef %7) #7
  %9 = icmp eq ptr %8, null
  br i1 %9, label %10, label %11

10:                                               ; preds = %3
  tail call void @JNU_ThrowNullPointerException(ptr noundef nonnull %0, ptr noundef nonnull @.str.4) #7
  br label %19

11:                                               ; preds = %3
  %12 = load ptr, ptr %0, align 8
  %13 = getelementptr inbounds i8, ptr %12, i64 872
  %14 = load ptr, ptr %13, align 8
  %15 = load ptr, ptr @iac_addressID, align 8
  tail call void %14(ptr noundef nonnull %0, ptr noundef nonnull %8, ptr noundef %15, i32 noundef %2) #7
  %16 = load ptr, ptr %0, align 8
  %17 = getelementptr inbounds i8, ptr %16, i64 184
  %18 = load ptr, ptr %17, align 8
  tail call void %18(ptr noundef nonnull %0, ptr noundef nonnull %8) #7
  br label %19

19:                                               ; preds = %11, %10
  ret void
}